target datalayout = "e-m:e-p270:32:32-p271:32:32-p272:64:64-i64:64-i128:128-f80:128-n8:16:32:64-S128"
target triple = "x86_64-pc-linux-gnu"

%"class.ncnn::Mat" = type { ptr, ptr, i64, i32, ptr, i32, i32, i32, i32, i32, i64 }
%struct.__ncnn_layer_t = type { ptr, ptr, ptr, ptr, ptr, ptr, ptr, ptr, ptr }

; Function Attrs: mustprogress uwtable
define internal noundef i32 @_ZL22__ncnn_Layer_forward_1P14__ncnn_layer_tP12__ncnn_mat_tPS2_P15__ncnn_option_t(ptr noundef %0, ptr noundef %1, ptr noundef %2, ptr noundef %3) #1 personality ptr @__gxx_personality_v0 {
  %5 = alloca ptr, align 8
  %6 = alloca i32, align 4
  %7 = alloca i32, align 4
  %8 = alloca ptr, align 8
  %9 = alloca ptr, align 8
  %10 = alloca ptr, align 8
  %11 = alloca i32, align 4
  %12 = alloca i32, align 4
  %13 = alloca ptr, align 8
  %14 = alloca i32, align 4
  %15 = alloca i32, align 4
  %16 = alloca ptr, align 8
  %17 = alloca ptr, align 8
  %18 = alloca ptr, align 8
  %19 = alloca ptr, align 8
  %20 = alloca ptr, align 8
  %21 = alloca ptr, align 8
  %22 = alloca ptr, align 8
  %23 = alloca ptr, align 8
  %24 = alloca ptr, align 8
  %25 = alloca %"class.ncnn::Mat", align 8
  %26 = alloca i32, align 4
  %27 = alloca ptr, align 8
  %28 = alloca i32, align 4
  store ptr %0, ptr %21, align 8
  store ptr %1, ptr %22, align 8
  store ptr %2, ptr %23, align 8
  store ptr %3, ptr %24, align 8
  store ptr %25, ptr %20, align 8
  %29 = load ptr, ptr %20, align 8
  store ptr null, ptr %29, align 8
  %30 = getelementptr inbounds nuw %"class.ncnn::Mat", ptr %29, i32 0, i32 1
  store ptr null, ptr %30, align 8
  %31 = getelementptr inbounds nuw %"class.ncnn::Mat", ptr %29, i32 0, i32 2
  store i64 0, ptr %31, align 8
  %32 = getelementptr inbounds nuw %"class.ncnn::Mat", ptr %29, i32 0, i32 3
  store i32 0, ptr %32, align 8
  %33 = getelementptr inbounds nuw %"class.ncnn::Mat", ptr %29, i32 0, i32 4
  store ptr null, ptr %33, align 8
  %34 = getelementptr inbounds nuw %"class.ncnn::Mat", ptr %29, i32 0, i32 5
  store i32 0, ptr %34, align 8
  %35 = getelementptr inbounds nuw %"class.ncnn::Mat", ptr %29, i32 0, i32 6
  store i32 0, ptr %35, align 4
  %36 = getelementptr inbounds nuw %"class.ncnn::Mat", ptr %29, i32 0, i32 7
  store i32 0, ptr %36, align 8
  %37 = getelementptr inbounds nuw %"class.ncnn::Mat", ptr %29, i32 0, i32 8
  store i32 0, ptr %37, align 4
  %38 = getelementptr inbounds nuw %"class.ncnn::Mat", ptr %29, i32 0, i32 9
  store i32 0, ptr %38, align 8
  %39 = getelementptr inbounds nuw %"class.ncnn::Mat", ptr %29, i32 0, i32 10
  store i64 0, ptr %39, align 8
  %40 = load ptr, ptr %21, align 8
  %41 = getelementptr inbounds nuw %struct.__ncnn_layer_t, ptr %40, i32 0, i32 0
  %42 = load ptr, ptr %41, align 8
  %43 = load ptr, ptr %22, align 8
  %44 = load ptr, ptr %24, align 8
  %45 = invoke noundef i32 @_ZNK4ncnn5Layer7forwardERKNS_3MatERS1_RKNS_6OptionE(ptr noundef nonnull align 8 dereferenceable(208) %42, ptr noundef nonnull align 8 dereferenceable(72) %43, ptr noundef nonnull align 8 dereferenceable(72) %25, ptr noundef nonnull align 8 dereferenceable(64) %44)
          to label %46 unwind label %151

46:                                               ; preds = %4
  store i32 %45, ptr %26, align 4
  %47 = invoke noalias noundef nonnull ptr @_Znwm(i64 noundef 72) #13
          to label %48 unwind label %151

48:                                               ; preds = %46
  store ptr %47, ptr %16, align 8
  store ptr %25, ptr %17, align 8
  %49 = load ptr, ptr %16, align 8
  %50 = load ptr, ptr %17, align 8
  %51 = load ptr, ptr %50, align 8
  store ptr %51, ptr %49, align 8
  %52 = getelementptr inbounds nuw %"class.ncnn::Mat", ptr %49, i32 0, i32 1
  %53 = load ptr, ptr %17, align 8
  %54 = getelementptr inbounds nuw %"class.ncnn::Mat", ptr %53, i32 0, i32 1
  %55 = load ptr, ptr %54, align 8
  store ptr %55, ptr %52, align 8
  %56 = getelementptr inbounds nuw %"class.ncnn::Mat", ptr %49, i32 0, i32 2
  %57 = load ptr, ptr %17, align 8
  %58 = getelementptr inbounds nuw %"class.ncnn::Mat", ptr %57, i32 0, i32 2
  %59 = load i64, ptr %58, align 8
  store i64 %59, ptr %56, align 8
  %60 = getelementptr inbounds nuw %"class.ncnn::Mat", ptr %49, i32 0, i32 3
  %61 = load ptr, ptr %17, align 8
  %62 = getelementptr inbounds nuw %"class.ncnn::Mat", ptr %61, i32 0, i32 3
  %63 = load i32, ptr %62, align 8
  store i32 %63, ptr %60, align 8
  %64 = getelementptr inbounds nuw %"class.ncnn::Mat", ptr %49, i32 0, i32 4
  %65 = load ptr, ptr %17, align 8
  %66 = getelementptr inbounds nuw %"class.ncnn::Mat", ptr %65, i32 0, i32 4
  %67 = load ptr, ptr %66, align 8
  store ptr %67, ptr %64, align 8
  %68 = getelementptr inbounds nuw %"class.ncnn::Mat", ptr %49, i32 0, i32 5
  %69 = load ptr, ptr %17, align 8
  %70 = getelementptr inbounds nuw %"class.ncnn::Mat", ptr %69, i32 0, i32 5
  %71 = load i32, ptr %70, align 8
  store i32 %71, ptr %68, align 8
  %72 = getelementptr inbounds nuw %"class.ncnn::Mat", ptr %49, i32 0, i32 6
  %73 = load ptr, ptr %17, align 8
  %74 = getelementptr inbounds nuw %"class.ncnn::Mat", ptr %73, i32 0, i32 6
  %75 = load i32, ptr %74, align 4
  store i32 %75, ptr %72, align 4
  %76 = getelementptr inbounds nuw %"class.ncnn::Mat", ptr %49, i32 0, i32 7
  %77 = load ptr, ptr %17, align 8
  %78 = getelementptr inbounds nuw %"class.ncnn::Mat", ptr %77, i32 0, i32 7
  %79 = load i32, ptr %78, align 8
  store i32 %79, ptr %76, align 8
  %80 = getelementptr inbounds nuw %"class.ncnn::Mat", ptr %49, i32 0, i32 8
  %81 = load ptr, ptr %17, align 8
  %82 = getelementptr inbounds nuw %"class.ncnn::Mat", ptr %81, i32 0, i32 8
  %83 = load i32, ptr %82, align 4
  store i32 %83, ptr %80, align 4
  %84 = getelementptr inbounds nuw %"class.ncnn::Mat", ptr %49, i32 0, i32 9
  %85 = load ptr, ptr %17, align 8
  %86 = getelementptr inbounds nuw %"class.ncnn::Mat", ptr %85, i32 0, i32 9
  %87 = load i32, ptr %86, align 8
  store i32 %87, ptr %84, align 8
  %88 = getelementptr inbounds nuw %"class.ncnn::Mat", ptr %49, i32 0, i32 10
  %89 = load ptr, ptr %17, align 8
  %90 = getelementptr inbounds nuw %"class.ncnn::Mat", ptr %89, i32 0, i32 10
  %91 = load i64, ptr %90, align 8
  store i64 %91, ptr %88, align 8
  store ptr %49, ptr %5, align 8
  %92 = load ptr, ptr %5, align 8
  %93 = getelementptr inbounds nuw %"class.ncnn::Mat", ptr %92, i32 0, i32 1
  %94 = load ptr, ptr %93, align 8
  %95 = icmp ne ptr %94, null
  br i1 %95, label %96, label %101

96:                                               ; preds = %48
  %97 = getelementptr inbounds nuw %"class.ncnn::Mat", ptr %92, i32 0, i32 1
  %98 = load ptr, ptr %97, align 8
  store i32 1, ptr %6, align 4
  %99 = load i32, ptr %6, align 4
  %100 = atomicrmw add ptr %98, i32 %99 acq_rel, align 4
  store i32 %100, ptr %7, align 4
  br label %101

101:                                              ; preds = %96, %48
  br label %102

102:                                              ; preds = %101
  %103 = load ptr, ptr %23, align 8
  store ptr %47, ptr %103, align 8
  %104 = load i32, ptr %26, align 4
  store ptr %25, ptr %19, align 8
  %105 = load ptr, ptr %19, align 8
  store ptr %105, ptr %10, align 8
  %106 = load ptr, ptr %10, align 8
  %107 = getelementptr inbounds nuw %"class.ncnn::Mat", ptr %106, i32 0, i32 1
  %108 = load ptr, ptr %107, align 8
  %109 = icmp ne ptr %108, null
  br i1 %109, label %110, label %137

110:                                              ; preds = %102
  %111 = getelementptr inbounds nuw %"class.ncnn::Mat", ptr %106, i32 0, i32 1
  %112 = load ptr, ptr %111, align 8
  store i32 -1, ptr %11, align 4
  %113 = load i32, ptr %11, align 4
  %114 = atomicrmw add ptr %112, i32 %113 acq_rel, align 4
  store i32 %114, ptr %12, align 4
  %115 = load i32, ptr %12, align 4
  %116 = icmp eq i32 %115, 1
  br i1 %116, label %117, label %137

117:                                              ; preds = %110
  %118 = getelementptr inbounds nuw %"class.ncnn::Mat", ptr %106, i32 0, i32 4
  %119 = load ptr, ptr %118, align 8
  %120 = icmp ne ptr %119, null
  br i1 %120, label %121, label %129

121:                                              ; preds = %117
  %122 = getelementptr inbounds nuw %"class.ncnn::Mat", ptr %106, i32 0, i32 4
  %123 = load ptr, ptr %122, align 8
  %124 = load ptr, ptr %106, align 8
  %125 = load ptr, ptr %123, align 8
  %126 = getelementptr inbounds ptr, ptr %125, i64 3
  %127 = load ptr, ptr %126, align 8
  invoke void %127(ptr noundef nonnull align 8 dereferenceable(8) %123, ptr noundef %124)
          to label %128 unwind label %147

128:                                              ; preds = %121
  br label %136

129:                                              ; preds = %117
  %130 = load ptr, ptr %106, align 8
  store ptr %130, ptr %9, align 8
  %131 = load ptr, ptr %9, align 8
  %132 = icmp ne ptr %131, null
  br i1 %132, label %133, label %135

133:                                              ; preds = %129
  %134 = load ptr, ptr %9, align 8
  call void @free(ptr noundef %134) #15
  br label %135

135:                                              ; preds = %133, %129
  br label %136

136:                                              ; preds = %135, %128
  br label %137

137:                                              ; preds = %136, %110, %102
  store ptr null, ptr %106, align 8
  %138 = getelementptr inbounds nuw %"class.ncnn::Mat", ptr %106, i32 0, i32 2
  store i64 0, ptr %138, align 8
  %139 = getelementptr inbounds nuw %"class.ncnn::Mat", ptr %106, i32 0, i32 3
  store i32 0, ptr %139, align 8
  %140 = getelementptr inbounds nuw %"class.ncnn::Mat", ptr %106, i32 0, i32 5
  store i32 0, ptr %140, align 8
  %141 = getelementptr inbounds nuw %"class.ncnn::Mat", ptr %106, i32 0, i32 6
  store i32 0, ptr %141, align 4
  %142 = getelementptr inbounds nuw %"class.ncnn::Mat", ptr %106, i32 0, i32 7
  store i32 0, ptr %142, align 8
  %143 = getelementptr inbounds nuw %"class.ncnn::Mat", ptr %106, i32 0, i32 8
  store i32 0, ptr %143, align 4
  %144 = getelementptr inbounds nuw %"class.ncnn::Mat", ptr %106, i32 0, i32 9
  store i32 0, ptr %144, align 8
  %145 = getelementptr inbounds nuw %"class.ncnn::Mat", ptr %106, i32 0, i32 10
  store i64 0, ptr %145, align 8
  %146 = getelementptr inbounds nuw %"class.ncnn::Mat", ptr %106, i32 0, i32 1
  store ptr null, ptr %146, align 8
  br label %150

147:                                              ; preds = %121
  %148 = landingpad { ptr, i32 }
          catch ptr null
  %149 = extractvalue { ptr, i32 } %148, 0
  call void @__clang_call_terminate(ptr %149) #16
  unreachable

150:                                              ; preds = %137
  ret i32 %104

151:                                              ; preds = %46, %4
  %152 = landingpad { ptr, i32 }
          cleanup
  %153 = extractvalue { ptr, i32 } %152, 0
  store ptr %153, ptr %27, align 8
  %154 = extractvalue { ptr, i32 } %152, 1
  store i32 %154, ptr %28, align 4
  br label %159

155:                                              ; No predecessors!
  %156 = landingpad { ptr, i32 }
          cleanup
  %157 = extractvalue { ptr, i32 } %156, 0
  store ptr %157, ptr %27, align 8
  %158 = extractvalue { ptr, i32 } %156, 1
  store i32 %158, ptr %28, align 4
  call void @_ZdlPvm(ptr noundef %47, i64 noundef 72) #14
  br label %159

159:                                              ; preds = %155, %151
  store ptr %25, ptr %18, align 8
  %160 = load ptr, ptr %18, align 8
  store ptr %160, ptr %13, align 8
  %161 = load ptr, ptr %13, align 8
  %162 = getelementptr inbounds nuw %"class.ncnn::Mat", ptr %161, i32 0, i32 1
  %163 = load ptr, ptr %162, align 8
  %164 = icmp ne ptr %163, null
  br i1 %164, label %165, label %192

165:                                              ; preds = %159
  %166 = getelementptr inbounds nuw %"class.ncnn::Mat", ptr %161, i32 0, i32 1
  %167 = load ptr, ptr %166, align 8
  store i32 -1, ptr %14, align 4
  %168 = load i32, ptr %14, align 4
  %169 = atomicrmw add ptr %167, i32 %168 acq_rel, align 4
  store i32 %169, ptr %15, align 4
  %170 = load i32, ptr %15, align 4
  %171 = icmp eq i32 %170, 1
  br i1 %171, label %172, label %192

172:                                              ; preds = %165
  %173 = getelementptr inbounds nuw %"class.ncnn::Mat", ptr %161, i32 0, i32 4
  %174 = load ptr, ptr %173, align 8
  %175 = icmp ne ptr %174, null
  br i1 %175, label %176, label %184

176:                                              ; preds = %172
  %177 = getelementptr inbounds nuw %"class.ncnn::Mat", ptr %161, i32 0, i32 4
  %178 = load ptr, ptr %177, align 8
  %179 = load ptr, ptr %161, align 8
  %180 = load ptr, ptr %178, align 8
  %181 = getelementptr inbounds ptr, ptr %180, i64 3
  %182 = load ptr, ptr %181, align 8
  invoke void %182(ptr noundef nonnull align 8 dereferenceable(8) %178, ptr noundef %179)
          to label %183 unwind label %202

183:                                              ; preds = %176
  br label %191

184:                                              ; preds = %172
  %185 = load ptr, ptr %161, align 8
  store ptr %185, ptr %8, align 8
  %186 = load ptr, ptr %8, align 8
  %187 = icmp ne ptr %186, null
  br i1 %187, label %188, label %190

188:                                              ; preds = %184
  %189 = load ptr, ptr %8, align 8
  call void @free(ptr noundef %189) #15
  br label %190

190:                                              ; preds = %188, %184
  br label %191

191:                                              ; preds = %190, %183
  br label %192

192:                                              ; preds = %191, %165, %159
  store ptr null, ptr %161, align 8
  %193 = getelementptr inbounds nuw %"class.ncnn::Mat", ptr %161, i32 0, i32 2
  store i64 0, ptr %193, align 8
  %194 = getelementptr inbounds nuw %"class.ncnn::Mat", ptr %161, i32 0, i32 3
  store i32 0, ptr %194, align 8
  %195 = getelementptr inbounds nuw %"class.ncnn::Mat", ptr %161, i32 0, i32 5
  store i32 0, ptr %195, align 8
  %196 = getelementptr inbounds nuw %"class.ncnn::Mat", ptr %161, i32 0, i32 6
  store i32 0, ptr %196, align 4
  %197 = getelementptr inbounds nuw %"class.ncnn::Mat", ptr %161, i32 0, i32 7
  store i32 0, ptr %197, align 8
  %198 = getelementptr inbounds nuw %"class.ncnn::Mat", ptr %161, i32 0, i32 8
  store i32 0, ptr %198, align 4
  %199 = getelementptr inbounds nuw %"class.ncnn::Mat", ptr %161, i32 0, i32 9
  store i32 0, ptr %199, align 8
  %200 = getelementptr inbounds nuw %"class.ncnn::Mat", ptr %161, i32 0, i32 10
  store i64 0, ptr %200, align 8
  %201 = getelementptr inbounds nuw %"class.ncnn::Mat", ptr %161, i32 0, i32 1
  store ptr null, ptr %201, align 8
  br label %205

202:                                              ; preds = %176
  %203 = landingpad { ptr, i32 }
          catch ptr null
  %204 = extractvalue { ptr, i32 } %203, 0
  call void @__clang_call_terminate(ptr %204) #16
  unreachable

205:                                              ; preds = %192
  br label %206

206:                                              ; preds = %205
  %207 = load ptr, ptr %27, align 8
  %208 = load i32, ptr %28, align 4
  %209 = insertvalue { ptr, i32 } poison, ptr %207, 0
  %210 = insertvalue { ptr, i32 } %209, i32 %208, 1
  resume { ptr, i32 } %210
}