; Function Attrs: mustprogress uwtable
define internal noundef i32 @_ZL22__ncnn_Layer_forward_1P14__ncnn_layer_tP12__ncnn_mat_tPS2_P15__ncnn_option_t(ptr nocapture noundef readonly %0, ptr noundef nonnull %1, ptr nocapture noundef writeonly %2, ptr noundef nonnull %3) #1 personality ptr @__gxx_personality_v0 {
  %5 = alloca %"class.ncnn::Mat", align 8
  %6 = getelementptr inbounds nuw i8, ptr %5, i64 8
  %7 = getelementptr inbounds nuw i8, ptr %5, i64 16
  %8 = getelementptr inbounds nuw i8, ptr %5, i64 24
  %9 = getelementptr inbounds nuw i8, ptr %5, i64 32
  %10 = getelementptr inbounds nuw i8, ptr %5, i64 40
  %11 = getelementptr inbounds nuw i8, ptr %5, i64 44
  %12 = getelementptr inbounds nuw i8, ptr %5, i64 48
  %13 = getelementptr inbounds nuw i8, ptr %5, i64 52
  %14 = getelementptr inbounds nuw i8, ptr %5, i64 56
  %15 = getelementptr inbounds nuw i8, ptr %5, i64 64
  store i64 0, ptr %15, align 8
  call void @llvm.memset.p0.i64(ptr noundef nonnull align 8 dereferenceable(28) %5, i8 0, i64 28, i1 false)
  call void @llvm.memset.p0.i64(ptr noundef nonnull align 8 dereferenceable(28) %9, i8 0, i64 28, i1 false)
  %16 = load ptr, ptr %0, align 8
  %17 = invoke noundef i32 @_ZNK4ncnn5Layer7forwardERKNS_3MatERS1_RKNS_6OptionE(ptr noundef nonnull align 8 dereferenceable(208) %16, ptr noundef nonnull align 8 dereferenceable(72) %1, ptr noundef nonnull align 8 dereferenceable(72) %5, ptr noundef nonnull align 8 dereferenceable(64) %3)
          to label %18 unwind label %60

18:                                               ; preds = %4
  %19 = invoke noalias noundef nonnull dereferenceable(72) ptr @_Znwm(i64 noundef 72) #24
          to label %20 unwind label %60

20:                                               ; preds = %18
  %21 = load ptr, ptr %5, align 8
  store ptr %21, ptr %19, align 8
  %22 = getelementptr inbounds nuw i8, ptr %19, i64 8
  %23 = load ptr, ptr %6, align 8
  store ptr %23, ptr %22, align 8
  %24 = getelementptr inbounds nuw i8, ptr %19, i64 16
  %25 = load i64, ptr %7, align 8
  store i64 %25, ptr %24, align 8
  %26 = getelementptr inbounds nuw i8, ptr %19, i64 24
  %27 = load i32, ptr %8, align 8
  store i32 %27, ptr %26, align 8
  %28 = getelementptr inbounds nuw i8, ptr %19, i64 32
  %29 = load ptr, ptr %9, align 8
  store ptr %29, ptr %28, align 8
  %30 = getelementptr inbounds nuw i8, ptr %19, i64 40
  %31 = load i32, ptr %10, align 8
  store i32 %31, ptr %30, align 8
  %32 = getelementptr inbounds nuw i8, ptr %19, i64 44
  %33 = load i32, ptr %11, align 4
  store i32 %33, ptr %32, align 4
  %34 = getelementptr inbounds nuw i8, ptr %19, i64 48
  %35 = load i32, ptr %12, align 8
  store i32 %35, ptr %34, align 8
  %36 = getelementptr inbounds nuw i8, ptr %19, i64 52
  %37 = load i32, ptr %13, align 4
  store i32 %37, ptr %36, align 4
  %38 = getelementptr inbounds nuw i8, ptr %19, i64 56
  %39 = load i32, ptr %14, align 8
  store i32 %39, ptr %38, align 8
  %40 = getelementptr inbounds nuw i8, ptr %19, i64 64
  %41 = load i64, ptr %15, align 8
  store i64 %41, ptr %40, align 8
  %.not41 = icmp eq ptr %23, null
  br i1 %.not41, label %.thread, label %42

.thread:                                          ; preds = %20
  store ptr %19, ptr %2, align 8
  br label %56

42:                                               ; preds = %20
  %43 = atomicrmw add ptr %23, i32 1 acq_rel, align 4
  %.pre = load ptr, ptr %6, align 8
  store ptr %19, ptr %2, align 8
  %.not42 = icmp eq ptr %.pre, null
  br i1 %.not42, label %56, label %44

44:                                               ; preds = %42
  %45 = atomicrmw add ptr %.pre, i32 -1 acq_rel, align 4
  %46 = icmp eq i32 %45, 1
  br i1 %46, label %47, label %56

47:                                               ; preds = %44
  %48 = load ptr, ptr %9, align 8
  %.not43 = icmp eq ptr %48, null
  %49 = load ptr, ptr %5, align 8
  br i1 %.not43, label %54, label %50

50:                                               ; preds = %47
  %51 = load ptr, ptr %48, align 8
  %52 = getelementptr inbounds i8, ptr %51, i64 24
  %53 = load ptr, ptr %52, align 8
  invoke void %53(ptr noundef nonnull align 8 dereferenceable(8) %48, ptr noundef %49)
          to label %56 unwind label %57

54:                                               ; preds = %47
  %.not44 = icmp eq ptr %49, null
  br i1 %.not44, label %56, label %55

55:                                               ; preds = %54
  call void @free(ptr noundef nonnull %49) #26
  br label %56

56:                                               ; preds = %.thread, %50, %55, %54, %44, %42
  ret i32 %17

57:                                               ; preds = %50
  %58 = landingpad { ptr, i32 }
          catch ptr null
  %59 = extractvalue { ptr, i32 } %58, 0
  call void @__clang_call_terminate(ptr %59) #27
  unreachable

60:                                               ; preds = %18, %4
  %61 = landingpad { ptr, i32 }
          cleanup
  %62 = load ptr, ptr %6, align 8
  %.not = icmp eq ptr %62, null
  br i1 %.not, label %75, label %63

63:                                               ; preds = %60
  %64 = atomicrmw add ptr %62, i32 -1 acq_rel, align 4
  %65 = icmp eq i32 %64, 1
  br i1 %65, label %66, label %75

66:                                               ; preds = %63
  %67 = load ptr, ptr %9, align 8
  %.not39 = icmp eq ptr %67, null
  %68 = load ptr, ptr %5, align 8
  br i1 %.not39, label %73, label %69

69:                                               ; preds = %66
  %70 = load ptr, ptr %67, align 8
  %71 = getelementptr inbounds i8, ptr %70, i64 24
  %72 = load ptr, ptr %71, align 8
  invoke void %72(ptr noundef nonnull align 8 dereferenceable(8) %67, ptr noundef %68)
          to label %75 unwind label %76

73:                                               ; preds = %66
  %.not40 = icmp eq ptr %68, null
  br i1 %.not40, label %75, label %74

74:                                               ; preds = %73
  call void @free(ptr noundef nonnull %68) #26
  br label %75

75:                                               ; preds = %69, %74, %73, %63, %60
  resume { ptr, i32 } %61

76:                                               ; preds = %69
  %77 = landingpad { ptr, i32 }
          catch ptr null
  %78 = extractvalue { ptr, i32 } %77, 0
  call void @__clang_call_terminate(ptr %78) #27
  unreachable
}